(V3.4.0
p0
(lp1
(lp2
(dp3
Vtimes
p4
(lp5
(Vcssmin
p6
F139.77856636047363
tp7
a(Vrcssmin
p8
F34.646511077880859
tp9
a(V_rcssmin
p10
F0.37643194198608398
tp11
asVmessages
p12
(lp13
sVsizes
p14
(lp15
L50539L
aL50791L
aL50791L
asVsize
p16
L82896L
sVfilename
p17
Vbench/wikipedia.css
p18
sa(dp19
g4
(lp20
(g6
F109.97540950775146
tp21
a(g8
F15.653324127197266
tp22
a(g10
F0.24419784545898438
tp23
asg12
(lp24
sg14
(lp25
L50539L
aL50539L
aL50539L
asg16
L50539L
sg17
Vbench/wikipedia.min.css
p26
satp27
.(V3.3.3
p0
(lp1
(lp2
(dp3
Vtimes
p4
(lp5
(Vcssmin
p6
F147.81672954559326
tp7
a(Vrcssmin
p8
F52.449274063110352
tp9
a(V_rcssmin
p10
F0.41832685470581055
tp11
asVsize
p12
L82896L
sVfilename
p13
Vbench/wikipedia.css
p14
sVmessages
p15
(lp16
sVsizes
p17
(lp18
L50539L
aL50791L
aL50791L
asa(dp19
g4
(lp20
(g6
F112.51969337463379
tp21
a(g8
F23.34132194519043
tp22
a(g10
F0.23360729217529297
tp23
asg12
L50539L
sg13
Vbench/wikipedia.min.css
p24
sg15
(lp25
sg17
(lp26
L50539L
aL50539L
aL50539L
asatp27
.(V3.2.5
p0
(lp1
(lp2
(dp3
Vtimes
p4
(lp5
(Vcssmin
p6
F170.27699947357178
tp7
a(Vrcssmin
p8
F46.835708618164062
tp9
a(V_rcssmin
p10
F0.35570859909057617
tp11
asVsize
p12
L82896L
sVmessages
p13
(lp14
sVsizes
p15
(lp16
L50539L
aL50791L
aL50791L
asVfilename
p17
Vbench/wikipedia.css
p18
sa(dp19
g4
(lp20
(g6
F114.46201801300049
tp21
a(g8
F21.103286743164062
tp22
a(g10
F0.22448062896728516
tp23
asg12
L50539L
sg13
(lp24
sg15
(lp25
L50539L
aL50539L
aL50539L
asg17
Vbench/wikipedia.min.css
p26
satp27
.(V3.1.5
p0
(lp1
(lp2
(dp3
Vtimes
p4
(lp5
(Vcssmin
p6
F132.62050151824951
tp7
a(Vrcssmin
p8
F42.918801307678223
tp9
a(V_rcssmin
p10
F0.3532099723815918
tp11
asVsize
p12
L82896L
sVmessages
p13
(lp14
sVsizes
p15
(lp16
L50539L
aL50791L
aL50791L
asVfilename
p17
Vbench/wikipedia.css
p18
sa(dp19
g4
(lp20
(g6
F97.551202774047852
tp21
a(g8
F19.664096832275391
tp22
a(g10
F0.21811008453369141
tp23
asg12
L50539L
sg13
(lp24
sg15
(lp25
L50539L
aL50539L
aL50539L
asg17
Vbench/wikipedia.min.css
p26
satp27
.(V3.0.1
p0
(lp1
(lp2
(dp3
Vtimes
p4
(lp5
(Vcssmin
p6
F142.14589595794678
tp7
a(Vrcssmin
p8
F43.064999580383301
tp9
a(V_rcssmin
p10
F0.35415172576904297
tp11
asVsize
p12
L82896L
sVmessages
p13
(lp14
sVsizes
p15
(lp16
L50539L
aL50791L
aL50791L
asVfilename
p17
Vbench/wikipedia.css
p18
sa(dp19
g4
(lp20
(g6
F107.48388767242432
tp21
a(g8
F19.427680969238281
tp22
a(g10
F0.21540164947509766
tp23
asg12
L50539L
sg13
(lp24
sg15
(lp25
L50539L
aL50539L
aL50539L
asg17
Vbench/wikipedia.min.css
p26
satp27
.(S'2.7.5'
p0
(lp1
(lp2
(dp3
S'times'
p4
(lp5
(S'cssmin'
p6
F137.4277114868164
tp7
a(S'rcssmin'
p8
F40.801310539245605
tp9
a(S'_rcssmin'
p10
F0.3955984115600586
tp11
asS'size'
p12
I82899
sS'messages'
p13
(lp14
sS'sizes'
p15
(lp16
I50540
aI50792
aI50792
asS'filename'
p17
S'bench/wikipedia.css'
p18
sa(dp19
g4
(lp20
(g6
F109.75019931793213
tp21
a(g8
F18.45569610595703
tp22
a(g10
F0.2575087547302246
tp23
asg12
I50540
sg13
(lp24
sg15
(lp25
I50540
aI50540
aI50540
asg17
S'bench/wikipedia.min.css'
p26
satp27
.(S'2.6.8'
p0
(lp1
(lp2
(dp3
S'times'
p4
(lp5
(S'cssmin'
p6
F159.73920822143555
tp7
a(S'rcssmin'
p8
F44.399309158325195
tp9
a(S'_rcssmin'
p10
F0.39355993270874023
tp11
asS'size'
p12
I82899
sS'messages'
p13
(lp14
sS'sizes'
p15
(lp16
I50540
aI50792
aI50792
asS'filename'
p17
S'bench/wikipedia.css'
p18
sa(dp19
g4
(lp20
(g6
F129.178786277771
tp21
a(g8
F20.592689514160156
tp22
a(g10
F0.26247978210449219
tp23
asg12
I50540
sg13
(lp24
sg15
(lp25
I50540
aI50540
aI50540
asg17
S'bench/wikipedia.min.css'
p26
satp27
.(S'2.5.6'
p0
(lp1
(lp2
(dp3
S'times'
p4
(lp5
(S'cssmin'
p6
F141.09861850738525
tp7
a(S'rcssmin'
p8
F40.455007553100586
tp9
a(S'_rcssmin'
p10
F0.3858494758605957
tp11
asS'size'
p12
I82899
sS'messages'
p13
(lp14
sS'sizes'
p15
(lp16
I50540
aI50792
aI50792
asS'filename'
p17
S'bench/wikipedia.css'
p18
sa(dp19
g4
(lp20
(g6
F111.2800121307373
tp21
a(g8
F18.235921859741211
tp22
a(g10
F0.25792121887207031
tp23
asg12
I50540
sg13
(lp24
sg15
(lp25
I50540
aI50540
aI50540
asg17
S'bench/wikipedia.min.css'
p26
satp27
.(S'2.4.6'
p0
(lp1
(lp2
(dp3
S'times'
p4
(lp5
(S'cssmin'
p6
F140.80600738525391
tp7
a(S'rcssmin'
p8
F38.524484634399414
tp9
a(S'_rcssmin'
p10
F0.3903508186340332
tp11
asS'size'
p12
I82899
sS'messages'
p13
(lp14
sS'sizes'
p15
(lp16
I50540
aI50792
aI50792
asS'filename'
p17
S'bench/wikipedia.css'
p18
sa(dp19
g4
(lp20
(g6
F112.36929893493652
tp21
a(g8
F17.963504791259766
tp22
a(g10
F0.26118993759155273
tp23
asg12
I50540
sg13
(lp24
sg15
(lp25
I50540
aI50540
aI50540
asg17
S'bench/wikipedia.min.css'
p26
satp27
.