(S'2.7.18'
p0
(lp1
(lp2
(dp3
S'size'
p4
I145933
sS'times'
p5
(lp6
(S'cssmin'
p7
F1172.593092918396
tp8
a(S'rcssmin'
p9
F30.61070442199707
tp10
a(S'_rcssmin'
p11
F0.558011531829834
tp12
asS'sizes'
p13
(lp14
I121652
aI122030
aI122030
asS'messages'
p15
(lp16
sS'filename'
p17
S'bench/bootstrap.css'
p18
sa(dp19
g4
I121457
sg5
(lp20
(g7
F1065.4557943344116
tp21
a(g9
F13.781595230102539
tp22
a(g11
F0.3498196601867676
tp23
asg13
(lp24
I121334
aI121407
aI121407
asg15
(lp25
sg17
S'bench/bootstrap.min.css'
p26
sa(dp27
g4
I82899
sg5
(lp28
(g7
F84.42859649658203
tp29
a(g9
F15.465188026428223
tp30
a(g11
F0.23457050323486328
tp31
asg13
(lp32
I50540
aI50802
aI50802
asg15
(lp33
sg17
S'bench/wikipedia.css'
p34
sa(dp35
g4
I50540
sg5
(lp36
(g7
F58.915114402770996
tp37
a(g9
F6.545710563659668
tp38
a(g11
F0.14594078063964844
tp39
asg13
(lp40
I50540
aI50540
aI50540
asg15
(lp41
sg17
S'bench/wikipedia.min.css'
p42
satp43
.(V3.10.5
p0
(lp1
(lp2
(dp3
Vfilename
p4
Vbench/bootstrap.css
p5
sVsizes
p6
(lp7
I121652
aI122030
aI122030
asVsize
p8
I145933
sVmessages
p9
(lp10
sVtimes
p11
(lp12
(Vcssmin
p13
F2141.114640235901
tp14
a(Vrcssmin
p15
F61.9647741317749
tp16
a(V_rcssmin
p17
F0.6800651550292969
tp18
asa(dp19
g4
Vbench/bootstrap.min.css
p20
sg6
(lp21
I121334
aI121407
aI121407
asg8
I121457
sg9
(lp22
sg11
(lp23
(g13
F1880.8949947357178
tp24
a(g15
F18.44303607940674
tp25
a(g17
F0.38944005966186523
tp26
asa(dp27
g4
Vbench/wikipedia.css
p28
sg6
(lp29
I50539
aI50801
aI50801
asg8
I82896
sg9
(lp30
sg11
(lp31
(g13
F104.46116924285889
tp32
a(g15
F20.075368881225586
tp33
a(g17
F0.39072513580322266
tp34
asa(dp35
g4
Vbench/wikipedia.min.css
p36
sg6
(lp37
I50539
aI50539
aI50539
asg8
I50539
sg9
(lp38
sg11
(lp39
(g13
F72.29392528533936
tp40
a(g15
F9.550690650939941
tp41
a(g17
F0.19651412963867188
tp42
asatp43
.(V3.11.0
p0
(lp1
(lp2
(dp3
Vfilename
p4
Vbench/bootstrap.css
p5
sVsizes
p6
(lp7
I121652
aI122030
aI122030
asVsize
p8
I145933
sVmessages
p9
(lp10
sVtimes
p11
(lp12
(Vcssmin
p13
F1323.5738039016724
tp14
a(Vrcssmin
p15
F32.32371807098389
tp16
a(V_rcssmin
p17
F0.6630706787109375
tp18
asa(dp19
g4
Vbench/bootstrap.min.css
p20
sg6
(lp21
I121334
aI121407
aI121407
asg8
I121457
sg9
(lp22
sg11
(lp23
(g13
F1326.7308235168457
tp24
a(g15
F21.603846549987793
tp25
a(g17
F0.5524706840515137
tp26
asa(dp27
g4
Vbench/wikipedia.css
p28
sg6
(lp29
I50539
aI50801
aI50801
asg8
I82896
sg9
(lp30
sg11
(lp31
(g13
F87.64386177062988
tp32
a(g15
F19.756245613098145
tp33
a(g17
F0.4780769348144531
tp34
asa(dp35
g4
Vbench/wikipedia.min.css
p36
sg6
(lp37
I50539
aI50539
aI50539
asg8
I50539
sg9
(lp38
sg11
(lp39
(g13
F83.33449363708496
tp40
a(g15
F12.372922897338867
tp41
a(g17
F0.317380428314209
tp42
asatp43
.(V3.6.15
p0
(lp1
(lp2
(dp3
Vfilename
p4
Vbench/bootstrap.css
p5
sVsizes
p6
(lp7
L121652L
aL122030L
aL122030L
asVsize
p8
L145933L
sVmessages
p9
(lp10
sVtimes
p11
(lp12
(Vcssmin
p13
F1195.7759141921997
tp14
a(Vrcssmin
p15
F37.91487216949463
tp16
a(V_rcssmin
p17
F0.42459726333618164
tp18
asa(dp19
g4
Vbench/bootstrap.min.css
p20
sg6
(lp21
L121334L
aL121407L
aL121407L
asg8
L121457L
sg9
(lp22
sg11
(lp23
(g13
F1025.1935482025146
tp24
a(g15
F15.08643627166748
tp25
a(g17
F0.2821683883666992
tp26
asa(dp27
g4
Vbench/wikipedia.css
p28
sg6
(lp29
L50539L
aL50801L
aL50801L
asg8
L82896L
sg9
(lp30
sg11
(lp31
(g13
F73.37698936462402
tp32
a(g15
F14.515376091003418
tp33
a(g17
F0.2553725242614746
tp34
asa(dp35
g4
Vbench/wikipedia.min.css
p36
sg6
(lp37
L50539L
aL50539L
aL50539L
asg8
L50539L
sg9
(lp38
sg11
(lp39
(g13
F54.0006160736084
tp40
a(g15
F7.0568084716796875
tp41
a(g17
F0.16626358032226562
tp42
asatp43
.(V3.7.13
p0
(lp1
(lp2
(dp3
Vfilename
p4
Vbench/bootstrap.css
p5
sVsizes
p6
(lp7
I121652
aI122030
aI122030
asVsize
p8
I145933
sVmessages
p9
(lp10
sVtimes
p11
(lp12
(Vcssmin
p13
F1205.0609588623047
tp14
a(Vrcssmin
p15
F29.319119453430176
tp16
a(V_rcssmin
p17
F0.43566465377807617
tp18
asa(dp19
g4
Vbench/bootstrap.min.css
p20
sg6
(lp21
I121334
aI121407
aI121407
asg8
I121457
sg9
(lp22
sg11
(lp23
(g13
F1160.0669622421265
tp24
a(g15
F14.528942108154297
tp25
a(g17
F0.30791759490966797
tp26
asa(dp27
g4
Vbench/wikipedia.css
p28
sg6
(lp29
I50539
aI50801
aI50801
asg8
I82896
sg9
(lp30
sg11
(lp31
(g13
F82.7460527420044
tp32
a(g15
F14.858770370483398
tp33
a(g17
F0.29572010040283203
tp34
asa(dp35
g4
Vbench/wikipedia.min.css
p36
sg6
(lp37
I50539
aI50539
aI50539
asg8
I50539
sg9
(lp38
sg11
(lp39
(g13
F66.90995693206787
tp40
a(g15
F10.141968727111816
tp41
a(g17
F0.1861882209777832
tp42
asatp43
.(V3.8.13
p0
(lp1
(lp2
(dp3
Vfilename
p4
Vbench/bootstrap.css
p5
sVsizes
p6
(lp7
I121652
aI122030
aI122030
asVsize
p8
I145933
sVmessages
p9
(lp10
sVtimes
p11
(lp12
(Vcssmin
p13
F1152.91109085083
tp14
a(Vrcssmin
p15
F30.68864345550537
tp16
a(V_rcssmin
p17
F0.40184497833251953
tp18
asa(dp19
g4
Vbench/bootstrap.min.css
p20
sg6
(lp21
I121334
aI121407
aI121407
asg8
I121457
sg9
(lp22
sg11
(lp23
(g13
F1214.3483877182007
tp24
a(g15
F17.331480979919434
tp25
a(g17
F0.38544654846191406
tp26
asa(dp27
g4
Vbench/wikipedia.css
p28
sg6
(lp29
I50539
aI50801
aI50801
asg8
I82896
sg9
(lp30
sg11
(lp31
(g13
F85.42101383209229
tp32
a(g15
F18.444323539733887
tp33
a(g17
F0.37787914276123047
tp34
asa(dp35
g4
Vbench/wikipedia.min.css
p36
sg6
(lp37
I50539
aI50539
aI50539
asg8
I50539
sg9
(lp38
sg11
(lp39
(g13
F67.6797866821289
tp40
a(g15
F9.751677513122559
tp41
a(g17
F0.20915746688842773
tp42
asatp43
.(V3.9.13
p0
(lp1
(lp2
(dp3
Vfilename
p4
Vbench/bootstrap.css
p5
sVsizes
p6
(lp7
I121652
aI122030
aI122030
asVsize
p8
I145933
sVmessages
p9
(lp10
sVtimes
p11
(lp12
(Vcssmin
p13
F1896.6951370239258
tp14
a(Vrcssmin
p15
F53.56612205505371
tp16
a(V_rcssmin
p17
F0.553736686706543
tp18
asa(dp19
g4
Vbench/bootstrap.min.css
p20
sg6
(lp21
I121334
aI121407
aI121407
asg8
I121457
sg9
(lp22
sg11
(lp23
(g13
F1722.8675842285156
tp24
a(g15
F28.36308479309082
tp25
a(g17
F0.445096492767334
tp26
asa(dp27
g4
Vbench/wikipedia.css
p28
sg6
(lp29
I50539
aI50801
aI50801
asg8
I82896
sg9
(lp30
sg11
(lp31
(g13
F122.07503318786621
tp32
a(g15
F24.696660041809082
tp33
a(g17
F0.3326296806335449
tp34
asa(dp35
g4
Vbench/wikipedia.min.css
p36
sg6
(lp37
I50539
aI50539
aI50539
asg8
I50539
sg9
(lp38
sg11
(lp39
(g13
F97.92845249176025
tp40
a(g15
F12.317156791687012
tp41
a(g17
F0.2260589599609375
tp42
asatp43
.