(S'2.7.18'
p0
(lp1
(lp2
(dp3
S'size'
p4
I145933
sS'times'
p5
(lp6
(S'cssmin'
p7
F1078.5748958587646
tp8
a(S'rcssmin'
p9
F29.731011390686035
tp10
a(S'_rcssmin'
p11
F0.46712160110473633
tp12
asS'sizes'
p13
(lp14
I121652
aI122030
aI122030
asS'messages'
p15
(lp16
sS'filename'
p17
S'bench/bootstrap.css'
p18
sa(dp19
g4
I121457
sg5
(lp20
(g7
F970.6424951553345
tp21
a(g9
F12.659287452697754
tp22
a(g11
F0.33269166946411133
tp23
asg13
(lp24
I121334
aI121407
aI121407
asg15
(lp25
sg17
S'bench/bootstrap.min.css'
p26
sa(dp27
g4
I82899
sg5
(lp28
(g7
F62.43629455566406
tp29
a(g9
F12.867188453674316
tp30
a(g11
F0.2392292022705078
tp31
asg13
(lp32
I50540
aI50802
aI50802
asg15
(lp33
sg17
S'bench/wikipedia.css'
p34
sa(dp35
g4
I50540
sg5
(lp36
(g7
F50.565409660339355
tp37
a(g9
F6.1550140380859375
tp38
a(g11
F0.15367984771728516
tp39
asg13
(lp40
I50540
aI50540
aI50540
asg15
(lp41
sg17
S'bench/wikipedia.min.css'
p42
satp43
.(V3.10.0
p0
(lp1
(lp2
(dp3
Vfilename
p4
Vbench/bootstrap.css
p5
sVsizes
p6
(lp7
I121652
aI122030
aI122030
asVsize
p8
I145933
sVmessages
p9
(lp10
sVtimes
p11
(lp12
(Vcssmin
p13
F1113.701605796814
tp14
a(Vrcssmin
p15
F32.288575172424316
tp16
a(V_rcssmin
p17
F0.481414794921875
tp18
asa(dp19
g4
Vbench/bootstrap.min.css
p20
sg6
(lp21
I121334
aI121407
aI121407
asg8
I121457
sg9
(lp22
sg11
(lp23
(g13
F1000.2917051315308
tp24
a(g15
F14.706778526306152
tp25
a(g17
F0.340578556060791
tp26
asa(dp27
g4
Vbench/wikipedia.css
p28
sg6
(lp29
I50539
aI50801
aI50801
asg8
I82896
sg9
(lp30
sg11
(lp31
(g13
F67.18332767486572
tp32
a(g15
F14.56751823425293
tp33
a(g17
F0.2849006652832031
tp34
asa(dp35
g4
Vbench/wikipedia.min.css
p36
sg6
(lp37
I50539
aI50539
aI50539
asg8
I50539
sg9
(lp38
sg11
(lp39
(g13
F52.863097190856934
tp40
a(g15
F7.324552536010742
tp41
a(g17
F0.18414974212646484
tp42
asatp43
.(V3.6.15
p0
(lp1
(lp2
(dp3
Vfilename
p4
Vbench/bootstrap.css
p5
sVsizes
p6
(lp7
L121652L
aL122030L
aL122030L
asVsize
p8
L145933L
sVmessages
p9
(lp10
sVtimes
p11
(lp12
(Vcssmin
p13
F1092.6053524017334
tp14
a(Vrcssmin
p15
F29.36561107635498
tp16
a(V_rcssmin
p17
F0.4202389717102051
tp18
asa(dp19
g4
Vbench/bootstrap.min.css
p20
sg6
(lp21
L121334L
aL121407L
aL121407L
asg8
L121457L
sg9
(lp22
sg11
(lp23
(g13
F983.3428859710693
tp24
a(g15
F14.14940357208252
tp25
a(g17
F0.28760194778442383
tp26
asa(dp27
g4
Vbench/wikipedia.css
p28
sg6
(lp29
L50539L
aL50801L
aL50801L
asg8
L82896L
sg9
(lp30
sg11
(lp31
(g13
F68.88833045959473
tp32
a(g15
F13.302373886108398
tp33
a(g17
F0.26276588439941406
tp34
asa(dp35
g4
Vbench/wikipedia.min.css
p36
sg6
(lp37
L50539L
aL50539L
aL50539L
asg8
L50539L
sg9
(lp38
sg11
(lp39
(g13
F52.40778923034668
tp40
a(g15
F6.751036643981934
tp41
a(g17
F0.16663551330566406
tp42
asatp43
.(V3.7.12
p0
(lp1
(lp2
(dp3
Vfilename
p4
Vbench/bootstrap.css
p5
sVsizes
p6
(lp7
I121652
aI122030
aI122030
asVsize
p8
I145933
sVmessages
p9
(lp10
sVtimes
p11
(lp12
(Vcssmin
p13
F1120.2364683151245
tp14
a(Vrcssmin
p15
F29.794716835021973
tp16
a(V_rcssmin
p17
F0.4205775260925293
tp18
asa(dp19
g4
Vbench/bootstrap.min.css
p20
sg6
(lp21
I121334
aI121407
aI121407
asg8
I121457
sg9
(lp22
sg11
(lp23
(g13
F1006.1558723449707
tp24
a(g15
F13.742899894714355
tp25
a(g17
F0.29145240783691406
tp26
asa(dp27
g4
Vbench/wikipedia.css
p28
sg6
(lp29
I50539
aI50801
aI50801
asg8
I82896
sg9
(lp30
sg11
(lp31
(g13
F67.25008487701416
tp32
a(g15
F12.980985641479492
tp33
a(g17
F0.26129961013793945
tp34
asa(dp35
g4
Vbench/wikipedia.min.css
p36
sg6
(lp37
I50539
aI50539
aI50539
asg8
I50539
sg9
(lp38
sg11
(lp39
(g13
F53.43337059020996
tp40
a(g15
F6.585192680358887
tp41
a(g17
F0.16594886779785156
tp42
asatp43
.(V3.8.12
p0
(lp1
(lp2
(dp3
Vfilename
p4
Vbench/bootstrap.css
p5
sVsizes
p6
(lp7
I121652
aI122030
aI122030
asVsize
p8
I145933
sVmessages
p9
(lp10
sVtimes
p11
(lp12
(Vcssmin
p13
F1121.3593244552612
tp14
a(Vrcssmin
p15
F29.73001003265381
tp16
a(V_rcssmin
p17
F0.4215693473815918
tp18
asa(dp19
g4
Vbench/bootstrap.min.css
p20
sg6
(lp21
I121334
aI121407
aI121407
asg8
I121457
sg9
(lp22
sg11
(lp23
(g13
F1010.1318836212158
tp24
a(g15
F14.122366905212402
tp25
a(g17
F0.2902507781982422
tp26
asa(dp27
g4
Vbench/wikipedia.css
p28
sg6
(lp29
I50539
aI50801
aI50801
asg8
I82896
sg9
(lp30
sg11
(lp31
(g13
F67.36202239990234
tp32
a(g15
F13.663244247436523
tp33
a(g17
F0.28386354446411133
tp34
asa(dp35
g4
Vbench/wikipedia.min.css
p36
sg6
(lp37
I50539
aI50539
aI50539
asg8
I50539
sg9
(lp38
sg11
(lp39
(g13
F53.37045192718506
tp40
a(g15
F6.989741325378418
tp41
a(g17
F0.1785874366760254
tp42
asatp43
.(V3.9.9
p0
(lp1
(lp2
(dp3
Vfilename
p4
Vbench/bootstrap.css
p5
sVsizes
p6
(lp7
I121652
aI122030
aI122030
asVsize
p8
I145933
sVmessages
p9
(lp10
sVtimes
p11
(lp12
(Vcssmin
p13
F1102.8530836105347
tp14
a(Vrcssmin
p15
F30.681300163269043
tp16
a(V_rcssmin
p17
F0.4210352897644043
tp18
asa(dp19
g4
Vbench/bootstrap.min.css
p20
sg6
(lp21
I121334
aI121407
aI121407
asg8
I121457
sg9
(lp22
sg11
(lp23
(g13
F992.4141883850098
tp24
a(g15
F14.304304122924805
tp25
a(g17
F0.28615474700927734
tp26
asa(dp27
g4
Vbench/wikipedia.css
p28
sg6
(lp29
I50539
aI50801
aI50801
asg8
I82896
sg9
(lp30
sg11
(lp31
(g13
F68.33651065826416
tp32
a(g15
F13.677692413330078
tp33
a(g17
F0.2613639831542969
tp34
asa(dp35
g4
Vbench/wikipedia.min.css
p36
sg6
(lp37
I50539
aI50539
aI50539
asg8
I50539
sg9
(lp38
sg11
(lp39
(g13
F52.75673866271973
tp40
a(g15
F6.953573226928711
tp41
a(g17
F0.16357183456420898
tp42
asatp43
.