(S'2.7.18'
p0
(lp1
(lp2
(dp3
S'times'
p4
(lp5
(S'cssmin'
p6
F1075.0616073608398
tp7
a(S'rcssmin'
p8
F29.767608642578125
tp9
a(S'_rcssmin'
p10
F0.3988480567932129
tp11
asS'size'
p12
I145933
sS'sizes'
p13
(lp14
I121652
aI122030
aI122030
asS'filename'
p15
S'bench/bootstrap.css'
p16
sS'messages'
p17
(lp18
sa(dp19
g4
(lp20
(g6
F966.7952060699463
tp21
a(g8
F12.527823448181152
tp22
a(g10
F0.27415990829467773
tp23
asg12
I121457
sg13
(lp24
I121334
aI121407
aI121407
asg15
S'bench/bootstrap.min.css'
p25
sg17
(lp26
sa(dp27
g4
(lp28
(g6
F62.12949752807617
tp29
a(g8
F12.90440559387207
tp30
a(g10
F0.21266937255859375
tp31
asg12
I82899
sg13
(lp32
I50540
aI50802
aI50802
asg15
S'bench/wikipedia.css'
p33
sg17
(lp34
sa(dp35
g4
(lp36
(g6
F50.4302978515625
tp37
a(g8
F6.237912178039551
tp38
a(g10
F0.1280498504638672
tp39
asg12
I50540
sg13
(lp40
I50540
aI50540
aI50540
asg15
S'bench/wikipedia.min.css'
p41
sg17
(lp42
satp43
.(V3.10.0
p0
(lp1
(lp2
(dp3
Vfilename
p4
Vbench/bootstrap.css
p5
sVsizes
p6
(lp7
I121652
aI122030
aI122030
asVsize
p8
I145933
sVmessages
p9
(lp10
sVtimes
p11
(lp12
(Vcssmin
p13
F1117.7958965301514
tp14
a(Vrcssmin
p15
F31.727051734924316
tp16
a(V_rcssmin
p17
F0.4244709014892578
tp18
asa(dp19
g4
Vbench/bootstrap.min.css
p20
sg6
(lp21
I121334
aI121407
aI121407
asg8
I121457
sg9
(lp22
sg11
(lp23
(g13
F1004.0540218353271
tp24
a(g15
F14.468789100646973
tp25
a(g17
F0.28441905975341797
tp26
asa(dp27
g4
Vbench/wikipedia.css
p28
sg6
(lp29
I50539
aI50801
aI50801
asg8
I82896
sg9
(lp30
sg11
(lp31
(g13
F67.07875728607178
tp32
a(g15
F14.411234855651855
tp33
a(g17
F0.2601194381713867
tp34
asa(dp35
g4
Vbench/wikipedia.min.css
p36
sg6
(lp37
I50539
aI50539
aI50539
asg8
I50539
sg9
(lp38
sg11
(lp39
(g13
F52.88853645324707
tp40
a(g15
F7.261300086975098
tp41
a(g17
F0.1616382598876953
tp42
asatp43
.(V3.6.15
p0
(lp1
(lp2
(dp3
Vfilename
p4
Vbench/bootstrap.css
p5
sVsizes
p6
(lp7
L121652L
aL122030L
aL122030L
asVsize
p8
L145933L
sVmessages
p9
(lp10
sVtimes
p11
(lp12
(Vcssmin
p13
F1102.8009176254272
tp14
a(Vrcssmin
p15
F29.540610313415527
tp16
a(V_rcssmin
p17
F0.535578727722168
tp18
asa(dp19
g4
Vbench/bootstrap.min.css
p20
sg6
(lp21
L121334L
aL121407L
aL121407L
asg8
L121457L
sg9
(lp22
sg11
(lp23
(g13
F992.9339170455933
tp24
a(g15
F14.094686508178711
tp25
a(g17
F0.3944993019104004
tp26
asa(dp27
g4
Vbench/wikipedia.css
p28
sg6
(lp29
L50539L
aL50801L
aL50801L
asg8
L82896L
sg9
(lp30
sg11
(lp31
(g13
F68.0732011795044
tp32
a(g15
F13.315176963806152
tp33
a(g17
F0.31395673751831055
tp34
asa(dp35
g4
Vbench/wikipedia.min.css
p36
sg6
(lp37
L50539L
aL50539L
aL50539L
asg8
L50539L
sg9
(lp38
sg11
(lp39
(g13
F52.78823375701904
tp40
a(g15
F6.750679016113281
tp41
a(g17
F0.20992040634155273
tp42
asatp43
.(V3.7.12
p0
(lp1
(lp2
(dp3
Vfilename
p4
Vbench/bootstrap.css
p5
sVsizes
p6
(lp7
I121652
aI122030
aI122030
asVsize
p8
I145933
sVmessages
p9
(lp10
sVtimes
p11
(lp12
(Vcssmin
p13
F1116.8723344802856
tp14
a(Vrcssmin
p15
F29.04965877532959
tp16
a(V_rcssmin
p17
F0.5415034294128418
tp18
asa(dp19
g4
Vbench/bootstrap.min.css
p20
sg6
(lp21
I121334
aI121407
aI121407
asg8
I121457
sg9
(lp22
sg11
(lp23
(g13
F1006.7974090576172
tp24
a(g15
F13.483524322509766
tp25
a(g17
F0.3988766670227051
tp26
asa(dp27
g4
Vbench/wikipedia.css
p28
sg6
(lp29
I50539
aI50801
aI50801
asg8
I82896
sg9
(lp30
sg11
(lp31
(g13
F67.48058795928955
tp32
a(g15
F12.978506088256836
tp33
a(g17
F0.31466245651245117
tp34
asa(dp35
g4
Vbench/wikipedia.min.css
p36
sg6
(lp37
I50539
aI50539
aI50539
asg8
I50539
sg9
(lp38
sg11
(lp39
(g13
F53.46498489379883
tp40
a(g15
F6.61160945892334
tp41
a(g17
F0.2101278305053711
tp42
asatp43
.(V3.8.12
p0
(lp1
(lp2
(dp3
Vfilename
p4
Vbench/bootstrap.css
p5
sVsizes
p6
(lp7
I121652
aI122030
aI122030
asVsize
p8
I145933
sVmessages
p9
(lp10
sVtimes
p11
(lp12
(Vcssmin
p13
F1121.3314056396484
tp14
a(Vrcssmin
p15
F29.873013496398926
tp16
a(V_rcssmin
p17
F0.5087447166442871
tp18
asa(dp19
g4
Vbench/bootstrap.min.css
p20
sg6
(lp21
I121334
aI121407
aI121407
asg8
I121457
sg9
(lp22
sg11
(lp23
(g13
F1010.1158857345581
tp24
a(g15
F14.11445140838623
tp25
a(g17
F0.36821603775024414
tp26
asa(dp27
g4
Vbench/wikipedia.css
p28
sg6
(lp29
I50539
aI50801
aI50801
asg8
I82896
sg9
(lp30
sg11
(lp31
(g13
F67.22545623779297
tp32
a(g15
F13.48714828491211
tp33
a(g17
F0.32076358795166016
tp34
asa(dp35
g4
Vbench/wikipedia.min.css
p36
sg6
(lp37
I50539
aI50539
aI50539
asg8
I50539
sg9
(lp38
sg11
(lp39
(g13
F53.50532531738281
tp40
a(g15
F6.882619857788086
tp41
a(g17
F0.21177053451538086
tp42
asatp43
.(V3.9.9
p0
(lp1
(lp2
(dp3
Vfilename
p4
Vbench/bootstrap.css
p5
sVsizes
p6
(lp7
I121652
aI122030
aI122030
asVsize
p8
I145933
sVmessages
p9
(lp10
sVtimes
p11
(lp12
(Vcssmin
p13
F1112.428092956543
tp14
a(Vrcssmin
p15
F30.75082302093506
tp16
a(V_rcssmin
p17
F0.5103540420532227
tp18
asa(dp19
g4
Vbench/bootstrap.min.css
p20
sg6
(lp21
I121334
aI121407
aI121407
asg8
I121457
sg9
(lp22
sg11
(lp23
(g13
F991.1672353744507
tp24
a(g15
F14.411139488220215
tp25
a(g17
F0.36812305450439453
tp26
asa(dp27
g4
Vbench/wikipedia.css
p28
sg6
(lp29
I50539
aI50801
aI50801
asg8
I82896
sg9
(lp30
sg11
(lp31
(g13
F70.35338878631592
tp32
a(g15
F13.925504684448242
tp33
a(g17
F0.2997016906738281
tp34
asa(dp35
g4
Vbench/wikipedia.min.css
p36
sg6
(lp37
I50539
aI50539
aI50539
asg8
I50539
sg9
(lp38
sg11
(lp39
(g13
F53.452134132385254
tp40
a(g15
F7.076144218444824
tp41
a(g17
F0.19771099090576172
tp42
asatp43
.