(S'2.7.16'
p0
(lp1
(lp2
(dp3
S'times'
p4
(lp5
(S'cssmin'
p6
F1053.690505027771
tp7
a(S'rcssmin'
p8
F28.984689712524414
tp9
a(S'_rcssmin'
p10
F0.4698610305786133
tp11
asS'sizes'
p12
(lp13
I121652
aI122030
aI122030
asS'size'
p14
I145933
sS'messages'
p15
(lp16
sS'filename'
p17
S'bench/bootstrap.css'
p18
sa(dp19
g4
(lp20
(g6
F964.6176815032959
tp21
a(g8
F12.608098983764648
tp22
a(g10
F0.36333799362182617
tp23
asg12
(lp24
I121334
aI121407
aI121407
asg14
I121457
sg15
(lp25
sg17
S'bench/bootstrap.min.css'
p26
sa(dp27
g4
(lp28
(g6
F61.08510494232178
tp29
a(g8
F12.93489933013916
tp30
a(g10
F0.23741960525512695
tp31
asg12
(lp32
I50540
aI50802
aI50802
asg14
I82899
sg15
(lp33
sg17
S'bench/wikipedia.css'
p34
sa(dp35
g4
(lp36
(g6
F49.44109916687012
tp37
a(g8
F6.271100044250488
tp38
a(g10
F0.1665496826171875
tp39
asg12
(lp40
I50540
aI50540
aI50540
asg14
I50540
sg15
(lp41
sg17
S'bench/wikipedia.min.css'
p42
satp43
.(V3.4.10
p0
(lp1
(lp2
(dp3
Vtimes
p4
(lp5
(Vcssmin
p6
F988.41204643249512
tp7
a(Vrcssmin
p8
F27.948641777038574
tp9
a(V_rcssmin
p10
F0.40314435958862305
tp11
asVmessages
p12
(lp13
sVsize
p14
L145933L
sVfilename
p15
Vbench/bootstrap.css
p16
sVsizes
p17
(lp18
L121652L
aL122030L
aL122030L
asa(dp19
g4
(lp20
(g6
F915.86267948150635
tp21
a(g8
F12.746167182922363
tp22
a(g10
F0.27892827987670898
tp23
asg12
(lp24
sg14
L121457L
sg15
Vbench/bootstrap.min.css
p25
sg17
(lp26
L121334L
aL121407L
aL121407L
asa(dp27
g4
(lp28
(g6
F60.063815116882324
tp29
a(g8
F12.886643409729004
tp30
a(g10
F0.20719766616821289
tp31
asg12
(lp32
sg14
L82896L
sg15
Vbench/wikipedia.css
p33
sg17
(lp34
L50539L
aL50801L
aL50801L
asa(dp35
g4
(lp36
(g6
F47.954416275024414
tp37
a(g8
F6.6453933715820312
tp38
a(g10
F0.13542413711547852
tp39
asg12
(lp40
sg14
L50539L
sg15
Vbench/wikipedia.min.css
p41
sg17
(lp42
L50539L
aL50539L
aL50539L
asatp43
.(V3.5.7
p0
(lp1
(lp2
(dp3
Vtimes
p4
(lp5
(Vcssmin
p6
F1094.494366645813
tp7
a(Vrcssmin
p8
F29.89943027496338
tp9
a(V_rcssmin
p10
F0.5170297622680664
tp11
asVmessages
p12
(lp13
sVsize
p14
L145933L
sVfilename
p15
Vbench/bootstrap.css
p16
sVsizes
p17
(lp18
L121652L
aL122030L
aL122030L
asa(dp19
g4
(lp20
(g6
F983.2762718200684
tp21
a(g8
F13.397622108459473
tp22
a(g10
F0.28411865234375
tp23
asg12
(lp24
sg14
L121457L
sg15
Vbench/bootstrap.min.css
p25
sg17
(lp26
L121334L
aL121407L
aL121407L
asa(dp27
g4
(lp28
(g6
F66.59741401672363
tp29
a(g8
F14.2503023147583
tp30
a(g10
F0.21853923797607422
tp31
asg12
(lp32
sg14
L82896L
sg15
Vbench/wikipedia.css
p33
sg17
(lp34
L50539L
aL50801L
aL50801L
asa(dp35
g4
(lp36
(g6
F50.2347469329834
tp37
a(g8
F6.666040420532227
tp38
a(g10
F0.13055086135864258
tp39
asg12
(lp40
sg14
L50539L
sg15
Vbench/wikipedia.min.css
p41
sg17
(lp42
L50539L
aL50539L
aL50539L
asatp43
.(V3.6.8
p0
(lp1
(lp2
(dp3
Vfilename
p4
Vbench/bootstrap.css
p5
sVsizes
p6
(lp7
L121652L
aL122030L
aL122030L
asVsize
p8
L145933L
sVmessages
p9
(lp10
sVtimes
p11
(lp12
(Vcssmin
p13
F1028.1004667282104
tp14
a(Vrcssmin
p15
F28.679323196411133
tp16
a(V_rcssmin
p17
F0.4042792320251465
tp18
asa(dp19
g4
Vbench/bootstrap.min.css
p20
sg6
(lp21
L121334L
aL121407L
aL121407L
asg8
L121457L
sg9
(lp22
sg11
(lp23
(g13
F921.031641960144
tp24
a(g15
F12.84325122833252
tp25
a(g17
F0.2785968780517578
tp26
asa(dp27
g4
Vbench/wikipedia.css
p28
sg6
(lp29
L50539L
aL50801L
aL50801L
asg8
L82896L
sg9
(lp30
sg11
(lp31
(g13
F61.9290828704834
tp32
a(g15
F12.868905067443848
tp33
a(g17
F0.20689010620117188
tp34
asa(dp35
g4
Vbench/wikipedia.min.css
p36
sg6
(lp37
L50539L
aL50539L
aL50539L
asg8
L50539L
sg9
(lp38
sg11
(lp39
(g13
F48.638176918029785
tp40
a(g15
F6.550145149230957
tp41
a(g17
F0.13118982315063477
tp42
asatp43
.(V3.7.2
p0
(lp1
(lp2
(dp3
Vfilename
p4
Vbench/bootstrap.css
p5
sVsizes
p6
(lp7
I121652
aI122030
aI122030
asVsize
p8
I145933
sVmessages
p9
(lp10
sVtimes
p11
(lp12
(Vcssmin
p13
F1124.5960235595703
tp14
a(Vrcssmin
p15
F29.464125633239746
tp16
a(V_rcssmin
p17
F0.4047107696533203
tp18
asa(dp19
g4
Vbench/bootstrap.min.css
p20
sg6
(lp21
I121334
aI121407
aI121407
asg8
I121457
sg9
(lp22
sg11
(lp23
(g13
F987.9807233810425
tp24
a(g15
F13.5756254196167
tp25
a(g17
F0.2815699577331543
tp26
asa(dp27
g4
Vbench/wikipedia.css
p28
sg6
(lp29
I50539
aI50801
aI50801
asg8
I82896
sg9
(lp30
sg11
(lp31
(g13
F63.68997097015381
tp32
a(g15
F13.35155963897705
tp33
a(g17
F0.2092742919921875
tp34
asa(dp35
g4
Vbench/wikipedia.min.css
p36
sg6
(lp37
I50539
aI50539
aI50539
asg8
I50539
sg9
(lp38
sg11
(lp39
(g13
F50.67093372344971
tp40
a(g15
F6.757545471191406
tp41
a(g17
F0.13305425643920898
tp42
asatp43
.