(S'2.7.18'
p0
(lp1
(lp2
(dp3
S'messages'
p4
(lp5
sS'size'
p6
I145933
sS'times'
p7
(lp8
(S'cssmin'
p9
F1099.9502897262573
tp10
a(S'rcssmin'
p11
F29.962801933288574
tp12
a(S'_rcssmin'
p13
F0.4046797752380371
tp14
asS'filename'
p15
S'bench/bootstrap.css'
p16
sS'sizes'
p17
(lp18
I121652
aI122030
aI122030
asa(dp19
g4
(lp20
sg6
I121457
sg7
(lp21
(g9
F990.4100894927979
tp22
a(g11
F13.01109790802002
tp23
a(g13
F0.2710890769958496
tp24
asg15
S'bench/bootstrap.min.css'
p25
sg17
(lp26
I121334
aI121407
aI121407
asa(dp27
g4
(lp28
sg6
I82899
sg7
(lp29
(g9
F63.69900703430176
tp30
a(g11
F12.981009483337402
tp31
a(g13
F0.2118396759033203
tp32
asg15
S'bench/wikipedia.css'
p33
sg17
(lp34
I50540
aI50802
aI50802
asa(dp35
g4
(lp36
sg6
I50540
sg7
(lp37
(g9
F51.74601078033447
tp38
a(g11
F6.307578086853027
tp39
a(g13
F0.12590885162353516
tp40
asg15
S'bench/wikipedia.min.css'
p41
sg17
(lp42
I50540
aI50540
aI50540
asatp43
.(V3.10.15
p0
(lp1
(lp2
(dp3
Vfilename
p4
Vbench/bootstrap.css
p5
sVsizes
p6
(lp7
I121652
aI122030
aI122030
asVsize
p8
I145933
sVmessages
p9
(lp10
sVtimes
p11
(lp12
(Vcssmin
p13
F1059.0687036514282
tp14
a(Vrcssmin
p15
F32.20949172973633
tp16
a(V_rcssmin
p17
F0.47764062881469727
tp18
asa(dp19
g4
Vbench/bootstrap.min.css
p20
sg6
(lp21
I121334
aI121407
aI121407
asg8
I121457
sg9
(lp22
sg11
(lp23
(g13
F944.8350667953491
tp24
a(g15
F15.380311012268066
tp25
a(g17
F0.32390594482421875
tp26
asa(dp27
g4
Vbench/wikipedia.css
p28
sg6
(lp29
I50539
aI50801
aI50801
asg8
I82896
sg9
(lp30
sg11
(lp31
(g13
F63.391685485839844
tp32
a(g15
F14.526700973510742
tp33
a(g17
F0.2831125259399414
tp34
asa(dp35
g4
Vbench/wikipedia.min.css
p36
sg6
(lp37
I50539
aI50539
aI50539
asg8
I50539
sg9
(lp38
sg11
(lp39
(g13
F49.47237968444824
tp40
a(g15
F7.5778961181640625
tp41
a(g17
F0.17551183700561523
tp42
asatp43
.(V3.11.10
p0
(lp1
(lp2
(dp3
Vfilename
p4
Vbench/bootstrap.css
p5
sVsizes
p6
(lp7
I121652
aI122030
aI122030
asVsize
p8
I145933
sVmessages
p9
(lp10
sVtimes
p11
(lp12
(Vcssmin
p13
F950.8278608322144
tp14
a(Vrcssmin
p15
F27.48887538909912
tp16
a(V_rcssmin
p17
F0.4800248146057129
tp18
asa(dp19
g4
Vbench/bootstrap.min.css
p20
sg6
(lp21
I121334
aI121407
aI121407
asg8
I121457
sg9
(lp22
sg11
(lp23
(g13
F855.4948329925537
tp24
a(g15
F12.843489646911621
tp25
a(g17
F0.32398223876953125
tp26
asa(dp27
g4
Vbench/wikipedia.css
p28
sg6
(lp29
I50539
aI50801
aI50801
asg8
I82896
sg9
(lp30
sg11
(lp31
(g13
F57.832908630371094
tp32
a(g15
F12.38868236541748
tp33
a(g17
F0.2827167510986328
tp34
asa(dp35
g4
Vbench/wikipedia.min.css
p36
sg6
(lp37
I50539
aI50539
aI50539
asg8
I50539
sg9
(lp38
sg11
(lp39
(g13
F44.59977149963379
tp40
a(g15
F6.366729736328125
tp41
a(g17
F0.1757335662841797
tp42
asatp43
.(V3.12.7
p0
(lp1
(lp2
(dp3
Vfilename
p4
Vbench/bootstrap.css
p5
sVsizes
p6
(lp7
I121652
aI122030
aI122030
asVsize
p8
I145933
sVmessages
p9
(lp10
sVtimes
p11
(lp12
(Vcssmin
p13
F975.4931688308716
tp14
a(Vrcssmin
p15
F32.26487636566162
tp16
a(V_rcssmin
p17
F0.443875789642334
tp18
asa(dp19
g4
Vbench/bootstrap.min.css
p20
sg6
(lp21
I121334
aI121407
aI121407
asg8
I121457
sg9
(lp22
sg11
(lp23
(g13
F880.3447246551514
tp24
a(g15
F15.319061279296875
tp25
a(g17
F0.26265382766723633
tp26
asa(dp27
g4
Vbench/wikipedia.css
p28
sg6
(lp29
I50539
aI50801
aI50801
asg8
I82896
sg9
(lp30
sg11
(lp31
(g13
F57.27503299713135
tp32
a(g15
F14.830183982849121
tp33
a(g17
F0.27942419052124023
tp34
asa(dp35
g4
Vbench/wikipedia.min.css
p36
sg6
(lp37
I50539
aI50539
aI50539
asg8
I50539
sg9
(lp38
sg11
(lp39
(g13
F46.033287048339844
tp40
a(g15
F7.592630386352539
tp41
a(g17
F0.16261577606201172
tp42
asatp43
.(V3.13.0
p0
(lp1
(lp2
(dp3
Vfilename
p4
Vbench/bootstrap.css
p5
sVsizes
p6
(lp7
I121652
aI122030
aI122030
asVsize
p8
I145933
sVmessages
p9
(lp10
sVtimes
p11
(lp12
(Vcssmin
p13
F972.7762937545776
tp14
a(Vrcssmin
p15
F33.391451835632324
tp16
a(V_rcssmin
p17
F0.42459964752197266
tp18
asa(dp19
g4
Vbench/bootstrap.min.css
p20
sg6
(lp21
I121334
aI121407
aI121407
asg8
I121457
sg9
(lp22
sg11
(lp23
(g13
F877.8545379638672
tp24
a(g15
F15.526366233825684
tp25
a(g17
F0.28363466262817383
tp26
asa(dp27
g4
Vbench/wikipedia.css
p28
sg6
(lp29
I50539
aI50801
aI50801
asg8
I82896
sg9
(lp30
sg11
(lp31
(g13
F56.56607151031494
tp32
a(g15
F14.915704727172852
tp33
a(g17
F0.27985572814941406
tp34
asa(dp35
g4
Vbench/wikipedia.min.css
p36
sg6
(lp37
I50539
aI50539
aI50539
asg8
I50539
sg9
(lp38
sg11
(lp39
(g13
F45.406508445739746
tp40
a(g15
F7.70573616027832
tp41
a(g17
F0.1624464988708496
tp42
asatp43
.(V3.6.15
p0
(lp1
(lp2
(dp3
Vfilename
p4
Vbench/bootstrap.css
p5
sVsizes
p6
(lp7
L121652L
aL122030L
aL122030L
asVsize
p8
L145933L
sVmessages
p9
(lp10
sVtimes
p11
(lp12
(Vcssmin
p13
F1126.3028144836426
tp14
a(Vrcssmin
p15
F33.92026424407959
tp16
a(V_rcssmin
p17
F0.4222726821899414
tp18
asa(dp19
g4
Vbench/bootstrap.min.css
p20
sg6
(lp21
L121334L
aL121407L
aL121407L
asg8
L121457L
sg9
(lp22
sg11
(lp23
(g13
F1026.8175840377808
tp24
a(g15
F15.920138359069824
tp25
a(g17
F0.28499364852905273
tp26
asa(dp27
g4
Vbench/wikipedia.css
p28
sg6
(lp29
L50539L
aL50801L
aL50801L
asg8
L82896L
sg9
(lp30
sg11
(lp31
(g13
F71.0655927658081
tp32
a(g15
F15.725183486938477
tp33
a(g17
F0.28437137603759766
tp34
asa(dp35
g4
Vbench/wikipedia.min.css
p36
sg6
(lp37
L50539L
aL50539L
aL50539L
asg8
L50539L
sg9
(lp38
sg11
(lp39
(g13
F55.77385425567627
tp40
a(g15
F8.114242553710938
tp41
a(g17
F0.1820826530456543
tp42
asatp43
.(V3.7.13
p0
(lp1
(lp2
(dp3
Vfilename
p4
Vbench/bootstrap.css
p5
sVsizes
p6
(lp7
I121652
aI122030
aI122030
asVsize
p8
I145933
sVmessages
p9
(lp10
sVtimes
p11
(lp12
(Vcssmin
p13
F1078.9353370666504
tp14
a(Vrcssmin
p15
F31.067585945129395
tp16
a(V_rcssmin
p17
F0.4948759078979492
tp18
asa(dp19
g4
Vbench/bootstrap.min.css
p20
sg6
(lp21
I121334
aI121407
aI121407
asg8
I121457
sg9
(lp22
sg11
(lp23
(g13
F967.6000833511353
tp24
a(g15
F13.933992385864258
tp25
a(g17
F0.3268003463745117
tp26
asa(dp27
g4
Vbench/wikipedia.css
p28
sg6
(lp29
I50539
aI50801
aI50801
asg8
I82896
sg9
(lp30
sg11
(lp31
(g13
F64.36562538146973
tp32
a(g15
F13.324451446533203
tp33
a(g17
F0.2815675735473633
tp34
asa(dp35
g4
Vbench/wikipedia.min.css
p36
sg6
(lp37
I50539
aI50539
aI50539
asg8
I50539
sg9
(lp38
sg11
(lp39
(g13
F50.634074211120605
tp40
a(g15
F6.861400604248047
tp41
a(g17
F0.17642498016357422
tp42
asatp43
.(V3.8.20
p0
(lp1
(lp2
(dp3
Vfilename
p4
Vbench/bootstrap.css
p5
sVsizes
p6
(lp7
I121652
aI122030
aI122030
asVsize
p8
I145933
sVmessages
p9
(lp10
sVtimes
p11
(lp12
(Vcssmin
p13
F1033.5713863372803
tp14
a(Vrcssmin
p15
F30.605053901672363
tp16
a(V_rcssmin
p17
F0.47596216201782227
tp18
asa(dp19
g4
Vbench/bootstrap.min.css
p20
sg6
(lp21
I121334
aI121407
aI121407
asg8
I121457
sg9
(lp22
sg11
(lp23
(g13
F928.0275344848633
tp24
a(g15
F14.576315879821777
tp25
a(g17
F0.32536983489990234
tp26
asa(dp27
g4
Vbench/wikipedia.css
p28
sg6
(lp29
I50539
aI50801
aI50801
asg8
I82896
sg9
(lp30
sg11
(lp31
(g13
F63.80510330200195
tp32
a(g15
F13.356900215148926
tp33
a(g17
F0.28003692626953125
tp34
asa(dp35
g4
Vbench/wikipedia.min.css
p36
sg6
(lp37
I50539
aI50539
aI50539
asg8
I50539
sg9
(lp38
sg11
(lp39
(g13
F49.08335208892822
tp40
a(g15
F6.856846809387207
tp41
a(g17
F0.1751089096069336
tp42
asatp43
.(V3.9.20
p0
(lp1
(lp2
(dp3
Vfilename
p4
Vbench/bootstrap.css
p5
sVsizes
p6
(lp7
I121652
aI122030
aI122030
asVsize
p8
I145933
sVmessages
p9
(lp10
sVtimes
p11
(lp12
(Vcssmin
p13
F1074.151635169983
tp14
a(Vrcssmin
p15
F31.251120567321777
tp16
a(V_rcssmin
p17
F0.47720909118652344
tp18
asa(dp19
g4
Vbench/bootstrap.min.css
p20
sg6
(lp21
I121334
aI121407
aI121407
asg8
I121457
sg9
(lp22
sg11
(lp23
(g13
F964.8490905761719
tp24
a(g15
F14.937090873718262
tp25
a(g17
F0.32651185989379883
tp26
asa(dp27
g4
Vbench/wikipedia.css
p28
sg6
(lp29
I50539
aI50801
aI50801
asg8
I82896
sg9
(lp30
sg11
(lp31
(g13
F64.3939733505249
tp32
a(g15
F13.418865203857422
tp33
a(g17
F0.28066396713256836
tp34
asa(dp35
g4
Vbench/wikipedia.min.css
p36
sg6
(lp37
I50539
aI50539
aI50539
asg8
I50539
sg9
(lp38
sg11
(lp39
(g13
F50.64516067504883
tp40
a(g15
F6.8808794021606445
tp41
a(g17
F0.17575979232788086
tp42
asatp43
.