(S'2.7.18'
p0
(lp1
(lp2
(dp3
S'messages'
p4
(lp5
sS'size'
p6
I145933
sS'filename'
p7
S'bench/bootstrap.css'
p8
sS'times'
p9
(lp10
(S'cssmin'
p11
F1036.282205581665
tp12
a(S'rcssmin'
p13
F29.831504821777344
tp14
a(S'_rcssmin'
p15
F0.44487953186035156
tp16
asS'sizes'
p17
(lp18
I121652
aI122030
aI122030
asa(dp19
g4
(lp20
sg6
I121457
sg7
S'bench/bootstrap.min.css'
p21
sg9
(lp22
(g11
F948.9000082015991
tp23
a(g13
F12.143993377685547
tp24
a(g15
F0.31867027282714844
tp25
asg17
(lp26
I121334
aI121407
aI121407
asa(dp27
g4
(lp28
sg6
I82899
sg7
S'bench/wikipedia.css'
p29
sg9
(lp30
(g11
F62.92870044708252
tp31
a(g13
F13.437795639038086
tp32
a(g15
F0.2358102798461914
tp33
asg17
(lp34
I50540
aI50802
aI50802
asa(dp35
g4
(lp36
sg6
I50540
sg7
S'bench/wikipedia.min.css'
p37
sg9
(lp38
(g11
F49.329590797424316
tp39
a(g13
F6.685900688171387
tp40
a(g15
F0.14747142791748047
tp41
asg17
(lp42
I50540
aI50540
aI50540
asatp43
.(V3.10.5
p0
(lp1
(lp2
(dp3
Vfilename
p4
Vbench/bootstrap.css
p5
sVsizes
p6
(lp7
I121652
aI122030
aI122030
asVsize
p8
I145933
sVmessages
p9
(lp10
sVtimes
p11
(lp12
(Vcssmin
p13
F1065.286111831665
tp14
a(Vrcssmin
p15
F30.95703125
tp16
a(V_rcssmin
p17
F0.45134782791137695
tp18
asa(dp19
g4
Vbench/bootstrap.min.css
p20
sg6
(lp21
I121334
aI121407
aI121407
asg8
I121457
sg9
(lp22
sg11
(lp23
(g13
F951.600980758667
tp24
a(g15
F14.217352867126465
tp25
a(g17
F0.3211092948913574
tp26
asa(dp27
g4
Vbench/wikipedia.css
p28
sg6
(lp29
I50539
aI50801
aI50801
asg8
I82896
sg9
(lp30
sg11
(lp31
(g13
F64.11786079406738
tp32
a(g15
F14.055800437927246
tp33
a(g17
F0.2727365493774414
tp34
asa(dp35
g4
Vbench/wikipedia.min.css
p36
sg6
(lp37
I50539
aI50539
aI50539
asg8
I50539
sg9
(lp38
sg11
(lp39
(g13
F51.016879081726074
tp40
a(g15
F7.295989990234375
tp41
a(g17
F0.17879962921142578
tp42
asatp43
.(V3.11.0
p0
(lp1
(lp2
(dp3
Vfilename
p4
Vbench/bootstrap.css
p5
sVsizes
p6
(lp7
I121652
aI122030
aI122030
asVsize
p8
I145933
sVmessages
p9
(lp10
sVtimes
p11
(lp12
(Vcssmin
p13
F909.7074270248413
tp14
a(Vrcssmin
p15
F26.849818229675293
tp16
a(V_rcssmin
p17
F0.45247793197631836
tp18
asa(dp19
g4
Vbench/bootstrap.min.css
p20
sg6
(lp21
I121334
aI121407
aI121407
asg8
I121457
sg9
(lp22
sg11
(lp23
(g13
F819.6901798248291
tp24
a(g15
F12.40091323852539
tp25
a(g17
F0.3178286552429199
tp26
asa(dp27
g4
Vbench/wikipedia.css
p28
sg6
(lp29
I50539
aI50801
aI50801
asg8
I82896
sg9
(lp30
sg11
(lp31
(g13
F55.240678787231445
tp32
a(g15
F12.18571662902832
tp33
a(g17
F0.2891731262207031
tp34
asa(dp35
g4
Vbench/wikipedia.min.css
p36
sg6
(lp37
I50539
aI50539
aI50539
asg8
I50539
sg9
(lp38
sg11
(lp39
(g13
F42.82407760620117
tp40
a(g15
F6.357359886169434
tp41
a(g17
F0.18732547760009766
tp42
asatp43
.(V3.6.15
p0
(lp1
(lp2
(dp3
Vfilename
p4
Vbench/bootstrap.css
p5
sVsizes
p6
(lp7
L121652L
aL122030L
aL122030L
asVsize
p8
L145933L
sVmessages
p9
(lp10
sVtimes
p11
(lp12
(Vcssmin
p13
F1040.9744501113892
tp14
a(Vrcssmin
p15
F29.359006881713867
tp16
a(V_rcssmin
p17
F0.3987884521484375
tp18
asa(dp19
g4
Vbench/bootstrap.min.css
p20
sg6
(lp21
L121334L
aL121407L
aL121407L
asg8
L121457L
sg9
(lp22
sg11
(lp23
(g13
F937.917947769165
tp24
a(g15
F13.282394409179688
tp25
a(g17
F0.27332544326782227
tp26
asa(dp27
g4
Vbench/wikipedia.css
p28
sg6
(lp29
L50539L
aL50801L
aL50801L
asg8
L82896L
sg9
(lp30
sg11
(lp31
(g13
F64.44227695465088
tp32
a(g15
F12.987542152404785
tp33
a(g17
F0.24837255477905273
tp34
asa(dp35
g4
Vbench/wikipedia.min.css
p36
sg6
(lp37
L50539L
aL50539L
aL50539L
asg8
L50539L
sg9
(lp38
sg11
(lp39
(g13
F49.71780776977539
tp40
a(g15
F6.639003753662109
tp41
a(g17
F0.15701532363891602
tp42
asatp43
.(V3.7.13
p0
(lp1
(lp2
(dp3
Vfilename
p4
Vbench/bootstrap.css
p5
sVsizes
p6
(lp7
I121652
aI122030
aI122030
asVsize
p8
I145933
sVmessages
p9
(lp10
sVtimes
p11
(lp12
(Vcssmin
p13
F1047.3902702331543
tp14
a(Vrcssmin
p15
F29.70402240753174
tp16
a(V_rcssmin
p17
F0.43767213821411133
tp18
asa(dp19
g4
Vbench/bootstrap.min.css
p20
sg6
(lp21
I121334
aI121407
aI121407
asg8
I121457
sg9
(lp22
sg11
(lp23
(g13
F937.4854803085327
tp24
a(g15
F13.561177253723145
tp25
a(g17
F0.30600786209106445
tp26
asa(dp27
g4
Vbench/wikipedia.css
p28
sg6
(lp29
I50539
aI50801
aI50801
asg8
I82896
sg9
(lp30
sg11
(lp31
(g13
F64.65802192687988
tp32
a(g15
F13.544678688049316
tp33
a(g17
F0.28558969497680664
tp34
asa(dp35
g4
Vbench/wikipedia.min.css
p36
sg6
(lp37
I50539
aI50539
aI50539
asg8
I50539
sg9
(lp38
sg11
(lp39
(g13
F49.434781074523926
tp40
a(g15
F6.807041168212891
tp41
a(g17
F0.18282651901245117
tp42
asatp43
.(V3.8.13
p0
(lp1
(lp2
(dp3
Vfilename
p4
Vbench/bootstrap.css
p5
sVsizes
p6
(lp7
I121652
aI122030
aI122030
asVsize
p8
I145933
sVmessages
p9
(lp10
sVtimes
p11
(lp12
(Vcssmin
p13
F1042.6138401031494
tp14
a(Vrcssmin
p15
F29.018235206604004
tp16
a(V_rcssmin
p17
F0.39850950241088867
tp18
asa(dp19
g4
Vbench/bootstrap.min.css
p20
sg6
(lp21
I121334
aI121407
aI121407
asg8
I121457
sg9
(lp22
sg11
(lp23
(g13
F939.9960041046143
tp24
a(g15
F13.480567932128906
tp25
a(g17
F0.2711033821105957
tp26
asa(dp27
g4
Vbench/wikipedia.css
p28
sg6
(lp29
I50539
aI50801
aI50801
asg8
I82896
sg9
(lp30
sg11
(lp31
(g13
F64.13998603820801
tp32
a(g15
F12.667584419250488
tp33
a(g17
F0.2498626708984375
tp34
asa(dp35
g4
Vbench/wikipedia.min.css
p36
sg6
(lp37
I50539
aI50539
aI50539
asg8
I50539
sg9
(lp38
sg11
(lp39
(g13
F49.54030513763428
tp40
a(g15
F6.41484260559082
tp41
a(g17
F0.15735626220703125
tp42
asatp43
.(V3.9.13
p0
(lp1
(lp2
(dp3
Vfilename
p4
Vbench/bootstrap.css
p5
sVsizes
p6
(lp7
I121652
aI122030
aI122030
asVsize
p8
I145933
sVmessages
p9
(lp10
sVtimes
p11
(lp12
(Vcssmin
p13
F1075.2652883529663
tp14
a(Vrcssmin
p15
F28.70955467224121
tp16
a(V_rcssmin
p17
F0.4012775421142578
tp18
asa(dp19
g4
Vbench/bootstrap.min.css
p20
sg6
(lp21
I121334
aI121407
aI121407
asg8
I121457
sg9
(lp22
sg11
(lp23
(g13
F960.9968185424805
tp24
a(g15
F13.325881958007812
tp25
a(g17
F0.27555227279663086
tp26
asa(dp27
g4
Vbench/wikipedia.css
p28
sg6
(lp29
I50539
aI50801
aI50801
asg8
I82896
sg9
(lp30
sg11
(lp31
(g13
F65.11228084564209
tp32
a(g15
F12.758874893188477
tp33
a(g17
F0.247039794921875
tp34
asa(dp35
g4
Vbench/wikipedia.min.css
p36
sg6
(lp37
I50539
aI50539
aI50539
asg8
I50539
sg9
(lp38
sg11
(lp39
(g13
F50.420403480529785
tp40
a(g15
F6.469845771789551
tp41
a(g17
F0.15566587448120117
tp42
asatp43
.